; Function Attrs: mustprogress uwtable
define hidden noundef zeroext i1 @_ZN3sls12bv_lookahead19apply_random_updateERK10ptr_vectorI4exprE(ptr noundef nonnull align 8 dereferenceable(400) %0, ptr noundef nonnull readonly align 8 captures(none) dereferenceable(8) %1) local_unnamed_addr #3 align 2 {
  %3 = load ptr, ptr %1, align 8, !tbaa !132
  %4 = icmp eq ptr %3, null
  br i1 %4, label %_ZNK6vectorIP4exprLb0EjE5emptyEv.exit.thread, label %_ZNK6vectorIP4exprLb0EjE5emptyEv.exit

_ZNK6vectorIP4exprLb0EjE5emptyEv.exit:            ; preds = %2
  %5 = getelementptr inbounds i8, ptr %3, i64 -4
  %6 = load i32, ptr %5, align 4, !tbaa !133
  %7 = icmp eq i32 %6, 0
  br i1 %7, label %_ZNK6vectorIP4exprLb0EjE5emptyEv.exit.thread, label %_ZNK6vectorIP4exprLb0EjE4sizeEv.exit

_ZNK6vectorIP4exprLb0EjE4sizeEv.exit:             ; preds = %_ZNK6vectorIP4exprLb0EjE5emptyEv.exit
  %8 = getelementptr inbounds nuw i8, ptr %0, i64 32
  %9 = load ptr, ptr %8, align 8, !tbaa !92
  %10 = getelementptr inbounds nuw i8, ptr %9, i64 152
  %11 = load i32, ptr %10, align 4, !tbaa !139
  %12 = mul i32 %11, 214013
  %13 = add i32 %12, 2531011
  store i32 %13, ptr %10, align 4, !tbaa !139
  %14 = lshr i32 %13, 16
  %15 = and i32 %14, 32767
  %16 = urem i32 %15, %6
  %17 = zext nneg i32 %16 to i64
  %18 = getelementptr inbounds nuw ptr, ptr %3, i64 %17
  %19 = load ptr, ptr %18, align 8, !tbaa !134
  %20 = getelementptr inbounds nuw i8, ptr %0, i64 40
  %21 = load ptr, ptr %20, align 8, !tbaa !166
  %22 = tail call noundef zeroext i1 @_ZNK11ast_manager7is_boolEPK4expr(ptr noundef nonnull align 8 dereferenceable(976) %21, ptr noundef %19)
  br i1 %22, label %23, label %37

23:                                               ; preds = %_ZNK6vectorIP4exprLb0EjE4sizeEv.exit
  %24 = load i32, ptr %19, align 4, !tbaa !173
  %25 = getelementptr inbounds nuw i8, ptr %0, i64 352
  %26 = load i32, ptr %25, align 8, !tbaa !168
  %27 = icmp ult i32 %24, %26
  br i1 %27, label %_ZN3sls12bv_lookahead7is_rootEP4expr.exit, label %_ZN3sls12bv_lookahead7is_rootEP4expr.exit.thread

_ZN3sls12bv_lookahead7is_rootEP4expr.exit:        ; preds = %23
  %28 = getelementptr inbounds nuw i8, ptr %0, i64 360
  %29 = load ptr, ptr %28, align 8, !tbaa !89
  %30 = lshr i32 %24, 5
  %31 = zext nneg i32 %30 to i64
  %32 = getelementptr inbounds nuw i32, ptr %29, i64 %31
  %33 = load i32, ptr %32, align 4, !tbaa !133
  %34 = and i32 %24, 31
  %35 = shl nuw i32 1, %34
  %36 = and i32 %33, %35
  %.not = icmp eq i32 %36, 0
  br i1 %.not, label %_ZN3sls12bv_lookahead7is_rootEP4expr.exit.thread, label %_ZNK6vectorIP4exprLb0EjE5emptyEv.exit.thread

37:                                               ; preds = %_ZNK6vectorIP4exprLb0EjE4sizeEv.exit
  %38 = getelementptr inbounds nuw i8, ptr %0, i64 24
  %39 = load ptr, ptr %38, align 8, !tbaa !96
  %40 = tail call noundef nonnull align 8 dereferenceable(184) ptr @_ZNK3sls7bv_eval4wvalEP4expr(ptr noundef nonnull align 8 dereferenceable(865) %39, ptr noundef %19)
  %41 = getelementptr inbounds nuw i8, ptr %0, i64 200
  %42 = getelementptr inbounds nuw i8, ptr %40, i64 152
  %43 = load i32, ptr %42, align 8, !tbaa !191
  tail call void @_ZN3sls5bvect6set_bwEj(ptr noundef nonnull align 8 dereferenceable(20) %41, i32 noundef %43)
  %44 = load ptr, ptr %38, align 8, !tbaa !96
  %45 = getelementptr inbounds nuw i8, ptr %44, i64 504
  tail call void @_ZNK3sls12bv_valuation11get_variantERNS_5bvectER10random_gen(ptr noundef nonnull align 8 dereferenceable(184) %40, ptr noundef nonnull align 8 dereferenceable(20) %41, ptr noundef nonnull align 4 dereferenceable(4) %45)
  br label %_ZN3sls12bv_lookahead7is_rootEP4expr.exit.thread

_ZN3sls12bv_lookahead7is_rootEP4expr.exit.thread: ; preds = %23, %_ZN3sls12bv_lookahead7is_rootEP4expr.exit, %37
  %46 = getelementptr inbounds nuw i8, ptr %0, i64 168
  %47 = load i32, ptr %46, align 8, !tbaa !198
  %48 = add i32 %47, 1
  store i32 %48, ptr %46, align 8, !tbaa !198
  %49 = getelementptr inbounds nuw i8, ptr %0, i64 320
  %50 = load ptr, ptr %49, align 8, !tbaa !144
  %51 = getelementptr inbounds nuw i8, ptr %0, i64 200
  %52 = tail call noundef zeroext i1 @_ZN3sls12bv_lookahead12apply_updateEP4exprS2_RKNS_5bvectENS0_9move_typeE(ptr noundef nonnull align 8 dereferenceable(400) %0, ptr noundef %50, ptr noundef %19, ptr noundef nonnull align 8 dereferenceable(20) %51, i32 noundef 0)
  br label %_ZNK6vectorIP4exprLb0EjE5emptyEv.exit.thread

_ZNK6vectorIP4exprLb0EjE5emptyEv.exit.thread:     ; preds = %2, %_ZN3sls12bv_lookahead7is_rootEP4expr.exit.thread, %_ZN3sls12bv_lookahead7is_rootEP4expr.exit, %_ZNK6vectorIP4exprLb0EjE5emptyEv.exit
  %.0 = phi i1 [ false, %_ZNK6vectorIP4exprLb0EjE5emptyEv.exit ], [ %52, %_ZN3sls12bv_lookahead7is_rootEP4expr.exit.thread ], [ false, %_ZN3sls12bv_lookahead7is_rootEP4expr.exit ], [ false, %2 ]
  ret i1 %.0
}